target datalayout = "e-m:e-p270:32:32-p271:32:32-p272:64:64-i64:64-i128:128-f80:128-n8:16:32:64-S128"
target triple = "x86_64-pc-linux-gnu"

%"class.icu_77::CollationWeights" = type { i32, [5 x i32], [5 x i32], [7 x %"struct.icu_77::CollationWeights::WeightRange"], i32, i32 }
%"struct.icu_77::CollationWeights::WeightRange" = type { i32, i32, i32, i32 }

; Function Attrs: mustprogress nounwind uwtable
define void @_ZN6icu_7716CollationWeights16initForSecondaryEv(ptr noundef nonnull align 4 dereferenceable(164) %0) #0 align 2 {
  %2 = alloca ptr, align 8
  store ptr %0, ptr %2, align 8, !tbaa !3
  %3 = load ptr, ptr %2, align 8
  %4 = getelementptr inbounds nuw %"class.icu_77::CollationWeights", ptr %3, i32 0, i32 0
  store i32 3, ptr %4, align 4, !tbaa !8
  %5 = getelementptr inbounds nuw %"class.icu_77::CollationWeights", ptr %3, i32 0, i32 1
  %6 = getelementptr inbounds [5 x i32], ptr %5, i64 0, i64 1
  store i32 0, ptr %6, align 4, !tbaa !13
  %7 = getelementptr inbounds nuw %"class.icu_77::CollationWeights", ptr %3, i32 0, i32 2
  %8 = getelementptr inbounds [5 x i32], ptr %7, i64 0, i64 1
  store i32 0, ptr %8, align 4, !tbaa !13
  %9 = getelementptr inbounds nuw %"class.icu_77::CollationWeights", ptr %3, i32 0, i32 1
  %10 = getelementptr inbounds [5 x i32], ptr %9, i64 0, i64 2
  store i32 0, ptr %10, align 4, !tbaa !13
  %11 = getelementptr inbounds nuw %"class.icu_77::CollationWeights", ptr %3, i32 0, i32 2
  %12 = getelementptr inbounds [5 x i32], ptr %11, i64 0, i64 2
  store i32 0, ptr %12, align 4, !tbaa !13
  %13 = getelementptr inbounds nuw %"class.icu_77::CollationWeights", ptr %3, i32 0, i32 1
  %14 = getelementptr inbounds [5 x i32], ptr %13, i64 0, i64 3
  store i32 2, ptr %14, align 4, !tbaa !13
  %15 = getelementptr inbounds nuw %"class.icu_77::CollationWeights", ptr %3, i32 0, i32 2
  %16 = getelementptr inbounds [5 x i32], ptr %15, i64 0, i64 3
  store i32 255, ptr %16, align 4, !tbaa !13
  %17 = getelementptr inbounds nuw %"class.icu_77::CollationWeights", ptr %3, i32 0, i32 1
  %18 = getelementptr inbounds [5 x i32], ptr %17, i64 0, i64 4
  store i32 2, ptr %18, align 4, !tbaa !13
  %19 = getelementptr inbounds nuw %"class.icu_77::CollationWeights", ptr %3, i32 0, i32 2
  %20 = getelementptr inbounds [5 x i32], ptr %19, i64 0, i64 4
  store i32 255, ptr %20, align 4, !tbaa !13
  ret void
}